target datalayout = "e-m:e-p270:32:32-p271:32:32-p272:64:64-i64:64-i128:128-f80:128-n8:16:32:64-S128"
target triple = "x86_64-pc-linux-gnu"

%struct.lexbor_bst_entry = type { ptr, ptr, ptr, ptr, ptr, i64 }

; Function Attrs: nounwind uwtable
define hidden ptr @lexbor_bst_search_close(ptr noundef %0, ptr noundef %1, i64 noundef %2) #0 {
  %4 = alloca ptr, align 8
  %5 = alloca ptr, align 8
  %6 = alloca ptr, align 8
  %7 = alloca i64, align 8
  %8 = alloca ptr, align 8
  store ptr %0, ptr %5, align 8
  store ptr %1, ptr %6, align 8
  store i64 %2, ptr %7, align 8
  store ptr null, ptr %8, align 8
  br label %9

9:                                                ; preds = %36, %3
  %10 = load ptr, ptr %6, align 8
  %11 = icmp ne ptr %10, null
  br i1 %11, label %12, label %37

12:                                               ; preds = %9
  %13 = load ptr, ptr %6, align 8
  %14 = getelementptr inbounds %struct.lexbor_bst_entry, ptr %13, i32 0, i32 5
  %15 = load i64, ptr %14, align 8
  %16 = load i64, ptr %7, align 8
  %17 = icmp eq i64 %15, %16
  br i1 %17, label %18, label %20

18:                                               ; preds = %12
  %19 = load ptr, ptr %6, align 8
  store ptr %19, ptr %4, align 8
  br label %39

20:                                               ; preds = %12
  %21 = load i64, ptr %7, align 8
  %22 = load ptr, ptr %6, align 8
  %23 = getelementptr inbounds %struct.lexbor_bst_entry, ptr %22, i32 0, i32 5
  %24 = load i64, ptr %23, align 8
  %25 = icmp ugt i64 %21, %24
  br i1 %25, label %26, label %30

26:                                               ; preds = %20
  %27 = load ptr, ptr %6, align 8
  %28 = getelementptr inbounds %struct.lexbor_bst_entry, ptr %27, i32 0, i32 1
  %29 = load ptr, ptr %28, align 8
  store ptr %29, ptr %6, align 8
  br label %35

30:                                               ; preds = %20
  %31 = load ptr, ptr %6, align 8
  store ptr %31, ptr %8, align 8
  %32 = load ptr, ptr %6, align 8
  %33 = getelementptr inbounds %struct.lexbor_bst_entry, ptr %32, i32 0, i32 2
  %34 = load ptr, ptr %33, align 8
  store ptr %34, ptr %6, align 8
  br label %35

35:                                               ; preds = %30, %26
  br label %36

36:                                               ; preds = %35
  br label %9

37:                                               ; preds = %9
  %38 = load ptr, ptr %8, align 8
  store ptr %38, ptr %4, align 8
  br label %39

39:                                               ; preds = %37, %18
  %40 = load ptr, ptr %4, align 8
  ret ptr %40
}