; Function Attrs: nofree norecurse nosync nounwind memory(read, inaccessiblemem: none) uwtable
define hidden ptr @lexbor_bst_search_close(ptr nocapture noundef readnone %0, ptr noundef readonly %1, i64 noundef %2) local_unnamed_addr #2 {
  %.not15 = icmp eq ptr %1, null
  br i1 %.not15, label %._crit_edge, label %.lr.ph

.lr.ph:                                           ; preds = %3, %7
  %.017 = phi ptr [ %.1, %7 ], [ null, %3 ]
  %.01116 = phi ptr [ %.112, %7 ], [ %1, %3 ]
  %4 = getelementptr inbounds i8, ptr %.01116, i64 40
  %5 = load i64, ptr %4, align 8
  %6 = icmp eq i64 %5, %2
  br i1 %6, label %._crit_edge, label %7

7:                                                ; preds = %.lr.ph
  %8 = icmp ult i64 %5, %2
  %.112.in.v = select i1 %8, i64 8, i64 16
  %.112.in = getelementptr inbounds i8, ptr %.01116, i64 %.112.in.v
  %.1 = select i1 %8, ptr %.017, ptr %.01116
  %.112 = load ptr, ptr %.112.in, align 8
  %.not = icmp eq ptr %.112, null
  br i1 %.not, label %._crit_edge, label %.lr.ph

._crit_edge:                                      ; preds = %.lr.ph, %7, %3
  %.010 = phi ptr [ null, %3 ], [ %.1, %7 ], [ %.01116, %.lr.ph ]
  ret ptr %.010
}